target datalayout = "e-m:e-p270:32:32-p271:32:32-p272:64:64-i64:64-i128:128-f80:128-n8:16:32:64-S128"
target triple = "x86_64-unknown-linux-gnu"

%"class.std::__cxx11::basic_string" = type { %"struct.std::__cxx11::basic_string<char>::_Alloc_hider", i64, %union.anon.0 }
%"struct.std::__cxx11::basic_string<char>::_Alloc_hider" = type { ptr }
%union.anon.0 = type { i64, [8 x i8] }
%"struct.OpenImageIO_v2_6_0::ErrorHolder" = type { %"class.std::__cxx11::basic_string" }

@_ZN18OpenImageIO_v2_6_0L16error_msg_holderE = internal thread_local global %"struct.OpenImageIO_v2_6_0::ErrorHolder" zeroinitializer, align 8
@_ZTHN18OpenImageIO_v2_6_0L16error_msg_holderE = internal alias void (), ptr @__tls_init

; Function Attrs: uwtable
define internal noundef ptr @_ZTWN18OpenImageIO_v2_6_0L16error_msg_holderE() #7 {
  call void @_ZTHN18OpenImageIO_v2_6_0L16error_msg_holderE()
  %1 = call align 8 ptr @llvm.threadlocal.address.p0(ptr align 8 @_ZN18OpenImageIO_v2_6_0L16error_msg_holderE)
  ret ptr %1
}

; Function Attrs: mustprogress uwtable
define void @_ZN18OpenImageIO_v2_6_08geterrorB5cxx11Eb(ptr noalias sret(%"class.std::__cxx11::basic_string") align 8 %agg.result, i1 noundef zeroext %clear) #6 {
entry:
  %result.ptr = alloca ptr, align 8
  %clear.addr = alloca i8, align 1
  %error_msg = alloca ptr, align 8
  %nrvo = alloca i1, align 1
  store ptr %agg.result, ptr %result.ptr, align 8
  %frombool = zext i1 %clear to i8
  store i8 %frombool, ptr %clear.addr, align 1
  %0 = call ptr @_ZTWN18OpenImageIO_v2_6_0L16error_msg_holderE()
  %error_msg1 = getelementptr inbounds %"struct.OpenImageIO_v2_6_0::ErrorHolder", ptr %0, i32 0, i32 0
  store ptr %error_msg1, ptr %error_msg, align 8
  store i1 false, ptr %nrvo, align 1
  %1 = load ptr, ptr %error_msg, align 8
  call void @_ZNSt7__cxx1112basic_stringIcSt11char_traitsIcESaIcEEC1ERKS4_(ptr noundef nonnull align 8 dereferenceable(32) %agg.result, ptr noundef nonnull align 8 dereferenceable(32) %1)
  %2 = load i8, ptr %clear.addr, align 1
  %tobool = trunc i8 %2 to i1
  br i1 %tobool, label %if.then, label %if.end

if.then:                                          ; preds = %entry
  %3 = load ptr, ptr %error_msg, align 8
  call void @_ZNSt7__cxx1112basic_stringIcSt11char_traitsIcESaIcEE5clearEv(ptr noundef nonnull align 8 dereferenceable(32) %3) #3
  br label %if.end

if.end:                                           ; preds = %if.then, %entry
  store i1 true, ptr %nrvo, align 1
  %nrvo.val = load i1, ptr %nrvo, align 1
  br i1 %nrvo.val, label %nrvo.skipdtor, label %nrvo.unused

nrvo.unused:                                      ; preds = %if.end
  call void @_ZNSt7__cxx1112basic_stringIcSt11char_traitsIcESaIcEED1Ev(ptr noundef nonnull align 8 dereferenceable(32) %agg.result) #3
  br label %nrvo.skipdtor

nrvo.skipdtor:                                    ; preds = %nrvo.unused, %if.end
  ret void
}