; Function Attrs: uwtable
define void @_ZN18OpenImageIO_v2_6_08geterrorB5cxx11Eb(ptr noalias sret(%"class.std::__cxx11::basic_string") align 8 %agg.result, i1 noundef zeroext %clear) local_unnamed_addr #9 {
entry:
  %.b.i.i = load i1, ptr @__tls_guard, align 1
  br i1 %.b.i.i, label %_ZTWN18OpenImageIO_v2_6_0L16error_msg_holderE.exit, label %init.i.i, !prof !4

init.i.i:                                         ; preds = %entry
  store i1 true, ptr @__tls_guard, align 1
  tail call fastcc void @__cxx_global_var_init.18()
  br label %_ZTWN18OpenImageIO_v2_6_0L16error_msg_holderE.exit

_ZTWN18OpenImageIO_v2_6_0L16error_msg_holderE.exit: ; preds = %entry, %init.i.i
  %0 = tail call noundef nonnull align 8 ptr @llvm.threadlocal.address.p0(ptr align 8 @_ZN18OpenImageIO_v2_6_0L16error_msg_holderE)
  tail call void @_ZNSt7__cxx1112basic_stringIcSt11char_traitsIcESaIcEEC1ERKS4_(ptr noundef nonnull align 8 dereferenceable(32) %agg.result, ptr noundef nonnull align 8 dereferenceable(32) %0)
  br i1 %clear, label %if.then, label %nrvo.skipdtor

if.then:                                          ; preds = %_ZTWN18OpenImageIO_v2_6_0L16error_msg_holderE.exit
  tail call void @_ZNSt7__cxx1112basic_stringIcSt11char_traitsIcESaIcEE5clearEv(ptr noundef nonnull align 8 dereferenceable(32) %0) #8
  br label %nrvo.skipdtor

nrvo.skipdtor:                                    ; preds = %_ZTWN18OpenImageIO_v2_6_0L16error_msg_holderE.exit, %if.then
  ret void
}